target datalayout = "e-m:e-p270:32:32-p271:32:32-p272:64:64-i64:64-i128:128-f80:128-n8:16:32:64-S128"
target triple = "x86_64-pc-linux-gnu"

@.str.4 = private unnamed_addr constant [102 x i8] c"generated/home/dtcxzyw/WorkSpace/Projects/compilers/llvm-opt-benchmark/bench/hdf5/hdf5/src/H5FDsec2.c\00", align 1
@H5E_VFL_g = external global i64, align 8
@__func__.H5FD__sec2_ctl = private unnamed_addr constant [15 x i8] c"H5FD__sec2_ctl\00", align 1
@H5E_FCNTL_g = external global i64, align 8
@.str.31 = private unnamed_addr constant [48 x i8] c"unknown op_code and fail if unknown flag is set\00", align 1

; Function Attrs: nounwind uwtable
define internal i32 @H5FD__sec2_ctl(ptr noundef %0, i64 noundef %1, i64 noundef %2, ptr noundef %3, ptr noundef %4) #0 {
  %6 = alloca ptr, align 8
  %7 = alloca i64, align 8
  %8 = alloca i64, align 8
  %9 = alloca ptr, align 8
  %10 = alloca ptr, align 8
  %11 = alloca i32, align 4
  %12 = alloca i8, align 1
  store ptr %0, ptr %6, align 8
  store i64 %1, ptr %7, align 8
  store i64 %2, ptr %8, align 8
  store ptr %3, ptr %9, align 8
  store ptr %4, ptr %10, align 8
  store i32 0, ptr %11, align 4
  store i8 0, ptr %12, align 1
  %13 = load i64, ptr %8, align 8
  %14 = and i64 %13, 1
  %15 = icmp ne i64 %14, 0
  br i1 %15, label %16, label %31

16:                                               ; preds = %5
  br label %17

17:                                               ; preds = %16
  br label %18

18:                                               ; preds = %17
  br label %19

19:                                               ; preds = %18
  %20 = load i64, ptr @H5E_VFL_g, align 8
  %21 = load i64, ptr @H5E_FCNTL_g, align 8
  %22 = call i32 (ptr, ptr, i32, i64, i64, ptr, ...) @H5E_printf_stack(ptr noundef @.str.4, ptr noundef @__func__.H5FD__sec2_ctl, i32 noundef 1050, i64 noundef %20, i64 noundef %21, ptr noundef @.str.31)
  br label %23

23:                                               ; preds = %19
  store i8 1, ptr %12, align 1
  %24 = load i8, ptr %12, align 1
  %25 = trunc i8 %24 to i1
  %26 = zext i1 %25 to i8
  store i8 %26, ptr %12, align 1
  br label %27

27:                                               ; preds = %23
  br label %28

28:                                               ; preds = %27
  store i32 -1, ptr %11, align 4
  br label %32

29:                                               ; No predecessors!
  br label %30

30:                                               ; preds = %29
  br label %31

31:                                               ; preds = %30, %5
  br label %32

32:                                               ; preds = %31, %28
  %33 = load i32, ptr %11, align 4
  ret i32 %33
}