; Function Attrs: nounwind uwtable
define internal range(i32 -1, 1) i32 @H5FD__sec2_ctl(ptr nocapture readnone %0, i64 %1, i64 noundef %2, ptr nocapture readnone %3, ptr nocapture readnone %4) #0 {
  %6 = and i64 %2, 1
  %.not = icmp eq i64 %6, 0
  br i1 %.not, label %11, label %7

7:                                                ; preds = %5
  %8 = load i64, ptr @H5E_VFL_g, align 8
  %9 = load i64, ptr @H5E_FCNTL_g, align 8
  %10 = tail call i32 (ptr, ptr, i32, i64, i64, ptr, ...) @H5E_printf_stack(ptr noundef nonnull @.str.4, ptr noundef nonnull @__func__.H5FD__sec2_ctl, i32 noundef 1050, i64 noundef %8, i64 noundef %9, ptr noundef nonnull @.str.31) #15
  br label %11

11:                                               ; preds = %5, %7
  %.0 = phi i32 [ -1, %7 ], [ 0, %5 ]
  ret i32 %.0
}